; Function Attrs: mustprogress nofree norecurse nosync nounwind willreturn memory(argmem: readwrite) uwtable
define noundef ptr @wolfSSL_get_current_cipher(ptr noundef captures(address_is_null, ret: address, provenance) %0) local_unnamed_addr #4 {
  %.not = icmp eq ptr %0, null
  br i1 %.not, label %9, label %2

2:                                                ; preds = %1
  %3 = getelementptr inbounds nuw i8, ptr %0, i64 1037
  %4 = load i8, ptr %3, align 1, !tbaa !93
  %5 = getelementptr inbounds nuw i8, ptr %0, i64 240
  store i8 %4, ptr %5, align 16, !tbaa !249
  %6 = getelementptr inbounds nuw i8, ptr %0, i64 1038
  %7 = load i8, ptr %6, align 2, !tbaa !95
  %8 = getelementptr inbounds nuw i8, ptr %0, i64 241
  store i8 %7, ptr %8, align 1, !tbaa !250
  br label %9

9:                                                ; preds = %1, %2
  %.0 = phi ptr [ %5, %2 ], [ null, %1 ]
  ret ptr %.0
}